; ModuleID = '57/2088.c'
source_filename = "57/2088.c"
target datalayout = "e-m:e-p270:32:32-p271:32:32-p272:64:64-i64:64-f80:128-n8:16:32:64-S128"
target triple = "x86_64-pc-linux-gnu"

@.str = private unnamed_addr constant [3 x i8] c"%d\00", align 1
@.str.1 = private unnamed_addr constant [3 x i8] c"%s\00", align 1
@.str.2 = private unnamed_addr constant [4 x i8] c"%s\0A\00", align 1

; Function Attrs: noinline nounwind uwtable
define dso_local i32 @main() #0 {
  %1 = alloca i32, align 4
  %2 = alloca i32, align 4
  %3 = alloca i32, align 4
  %4 = alloca [50 x i32], align 16
  %5 = alloca [50 x [20 x i8]], align 16
  store i32 0, i32* %1, align 4
  %6 = call i32 (i8*, ...) @__isoc99_scanf(i8* getelementptr inbounds ([3 x i8], [3 x i8]* @.str, i64 0, i64 0), i32* %3)
  store i32 0, i32* %2, align 4
  br label %7

7:                                                ; preds = %26, %0
  %8 = load i32, i32* %2, align 4
  %9 = load i32, i32* %3, align 4
  %10 = icmp slt i32 %8, %9
  br i1 %10, label %11, label %29

11:                                               ; preds = %7
  %12 = load i32, i32* %2, align 4
  %13 = sext i32 %12 to i64
  %14 = getelementptr inbounds [50 x [20 x i8]], [50 x [20 x i8]]* %5, i64 0, i64 %13
  %15 = getelementptr inbounds [20 x i8], [20 x i8]* %14, i64 0, i64 0
  %16 = call i32 (i8*, ...) @__isoc99_scanf(i8* getelementptr inbounds ([3 x i8], [3 x i8]* @.str.1, i64 0, i64 0), i8* %15)
  %17 = load i32, i32* %2, align 4
  %18 = sext i32 %17 to i64
  %19 = getelementptr inbounds [50 x [20 x i8]], [50 x [20 x i8]]* %5, i64 0, i64 %18
  %20 = getelementptr inbounds [20 x i8], [20 x i8]* %19, i64 0, i64 0
  %21 = call i64 @strlen(i8* %20) #3
  %22 = trunc i64 %21 to i32
  %23 = load i32, i32* %2, align 4
  %24 = sext i32 %23 to i64
  %25 = getelementptr inbounds [50 x i32], [50 x i32]* %4, i64 0, i64 %24
  store i32 %22, i32* %25, align 4
  br label %26

26:                                               ; preds = %11
  %27 = load i32, i32* %2, align 4
  %28 = add nsw i32 %27, 1
  store i32 %28, i32* %2, align 4
  br label %7

29:                                               ; preds = %7
  store i32 0, i32* %2, align 4
  br label %30

30:                                               ; preds = %213, %29
  %31 = load i32, i32* %2, align 4
  %32 = load i32, i32* %3, align 4
  %33 = icmp slt i32 %31, %32
  br i1 %33, label %34, label %216

34:                                               ; preds = %30
  %35 = load i32, i32* %2, align 4
  %36 = sext i32 %35 to i64
  %37 = getelementptr inbounds [50 x [20 x i8]], [50 x [20 x i8]]* %5, i64 0, i64 %36
  %38 = load i32, i32* %2, align 4
  %39 = sext i32 %38 to i64
  %40 = getelementptr inbounds [50 x i32], [50 x i32]* %4, i64 0, i64 %39
  %41 = load i32, i32* %40, align 4
  %42 = sub nsw i32 %41, 2
  %43 = sext i32 %42 to i64
  %44 = getelementptr inbounds [20 x i8], [20 x i8]* %37, i64 0, i64 %43
  %45 = load i8, i8* %44, align 1
  %46 = sext i8 %45 to i32
  %47 = icmp eq i32 %46, 101
  br i1 %47, label %48, label %83

48:                                               ; preds = %34
  %49 = load i32, i32* %2, align 4
  %50 = sext i32 %49 to i64
  %51 = getelementptr inbounds [50 x [20 x i8]], [50 x [20 x i8]]* %5, i64 0, i64 %50
  %52 = load i32, i32* %2, align 4
  %53 = sext i32 %52 to i64
  %54 = getelementptr inbounds [50 x i32], [50 x i32]* %4, i64 0, i64 %53
  %55 = load i32, i32* %54, align 4
  %56 = sub nsw i32 %55, 1
  %57 = sext i32 %56 to i64
  %58 = getelementptr inbounds [20 x i8], [20 x i8]* %51, i64 0, i64 %57
  %59 = load i8, i8* %58, align 1
  %60 = sext i8 %59 to i32
  %61 = icmp eq i32 %60, 114
  br i1 %61, label %62, label %83

62:                                               ; preds = %48
  %63 = load i32, i32* %2, align 4
  %64 = sext i32 %63 to i64
  %65 = getelementptr inbounds [50 x [20 x i8]], [50 x [20 x i8]]* %5, i64 0, i64 %64
  %66 = load i32, i32* %2, align 4
  %67 = sext i32 %66 to i64
  %68 = getelementptr inbounds [50 x i32], [50 x i32]* %4, i64 0, i64 %67
  %69 = load i32, i32* %68, align 4
  %70 = sub nsw i32 %69, 2
  %71 = sext i32 %70 to i64
  %72 = getelementptr inbounds [20 x i8], [20 x i8]* %65, i64 0, i64 %71
  store i8 0, i8* %72, align 1
  %73 = load i32, i32* %2, align 4
  %74 = sext i32 %73 to i64
  %75 = getelementptr inbounds [50 x [20 x i8]], [50 x [20 x i8]]* %5, i64 0, i64 %74
  %76 = load i32, i32* %2, align 4
  %77 = sext i32 %76 to i64
  %78 = getelementptr inbounds [50 x i32], [50 x i32]* %4, i64 0, i64 %77
  %79 = load i32, i32* %78, align 4
  %80 = sub nsw i32 %79, 1
  %81 = sext i32 %80 to i64
  %82 = getelementptr inbounds [20 x i8], [20 x i8]* %75, i64 0, i64 %81
  store i8 0, i8* %82, align 1
  br label %207

83:                                               ; preds = %48, %34
  %84 = load i32, i32* %2, align 4
  %85 = sext i32 %84 to i64
  %86 = getelementptr inbounds [50 x [20 x i8]], [50 x [20 x i8]]* %5, i64 0, i64 %85
  %87 = load i32, i32* %2, align 4
  %88 = sext i32 %87 to i64
  %89 = getelementptr inbounds [50 x i32], [50 x i32]* %4, i64 0, i64 %88
  %90 = load i32, i32* %89, align 4
  %91 = sub nsw i32 %90, 2
  %92 = sext i32 %91 to i64
  %93 = getelementptr inbounds [20 x i8], [20 x i8]* %86, i64 0, i64 %92
  %94 = load i8, i8* %93, align 1
  %95 = sext i8 %94 to i32
  %96 = icmp eq i32 %95, 108
  br i1 %96, label %97, label %132

97:                                               ; preds = %83
  %98 = load i32, i32* %2, align 4
  %99 = sext i32 %98 to i64
  %100 = getelementptr inbounds [50 x [20 x i8]], [50 x [20 x i8]]* %5, i64 0, i64 %99
  %101 = load i32, i32* %2, align 4
  %102 = sext i32 %101 to i64
  %103 = getelementptr inbounds [50 x i32], [50 x i32]* %4, i64 0, i64 %102
  %104 = load i32, i32* %103, align 4
  %105 = sub nsw i32 %104, 1
  %106 = sext i32 %105 to i64
  %107 = getelementptr inbounds [20 x i8], [20 x i8]* %100, i64 0, i64 %106
  %108 = load i8, i8* %107, align 1
  %109 = sext i8 %108 to i32
  %110 = icmp eq i32 %109, 121
  br i1 %110, label %111, label %132

111:                                              ; preds = %97
  %112 = load i32, i32* %2, align 4
  %113 = sext i32 %112 to i64
  %114 = getelementptr inbounds [50 x [20 x i8]], [50 x [20 x i8]]* %5, i64 0, i64 %113
  %115 = load i32, i32* %2, align 4
  %116 = sext i32 %115 to i64
  %117 = getelementptr inbounds [50 x i32], [50 x i32]* %4, i64 0, i64 %116
  %118 = load i32, i32* %117, align 4
  %119 = sub nsw i32 %118, 2
  %120 = sext i32 %119 to i64
  %121 = getelementptr inbounds [20 x i8], [20 x i8]* %114, i64 0, i64 %120
  store i8 0, i8* %121, align 1
  %122 = load i32, i32* %2, align 4
  %123 = sext i32 %122 to i64
  %124 = getelementptr inbounds [50 x [20 x i8]], [50 x [20 x i8]]* %5, i64 0, i64 %123
  %125 = load i32, i32* %2, align 4
  %126 = sext i32 %125 to i64
  %127 = getelementptr inbounds [50 x i32], [50 x i32]* %4, i64 0, i64 %126
  %128 = load i32, i32* %127, align 4
  %129 = sub nsw i32 %128, 1
  %130 = sext i32 %129 to i64
  %131 = getelementptr inbounds [20 x i8], [20 x i8]* %124, i64 0, i64 %130
  store i8 0, i8* %131, align 1
  br label %206

132:                                              ; preds = %97, %83
  %133 = load i32, i32* %2, align 4
  %134 = sext i32 %133 to i64
  %135 = getelementptr inbounds [50 x [20 x i8]], [50 x [20 x i8]]* %5, i64 0, i64 %134
  %136 = load i32, i32* %2, align 4
  %137 = sext i32 %136 to i64
  %138 = getelementptr inbounds [50 x i32], [50 x i32]* %4, i64 0, i64 %137
  %139 = load i32, i32* %138, align 4
  %140 = sub nsw i32 %139, 2
  %141 = sext i32 %140 to i64
  %142 = getelementptr inbounds [20 x i8], [20 x i8]* %135, i64 0, i64 %141
  %143 = load i8, i8* %142, align 1
  %144 = sext i8 %143 to i32
  %145 = icmp eq i32 %144, 110
  br i1 %145, label %146, label %205

146:                                              ; preds = %132
  %147 = load i32, i32* %2, align 4
  %148 = sext i32 %147 to i64
  %149 = getelementptr inbounds [50 x [20 x i8]], [50 x [20 x i8]]* %5, i64 0, i64 %148
  %150 = load i32, i32* %2, align 4
  %151 = sext i32 %150 to i64
  %152 = getelementptr inbounds [50 x i32], [50 x i32]* %4, i64 0, i64 %151
  %153 = load i32, i32* %152, align 4
  %154 = sub nsw i32 %153, 1
  %155 = sext i32 %154 to i64
  %156 = getelementptr inbounds [20 x i8], [20 x i8]* %149, i64 0, i64 %155
  %157 = load i8, i8* %156, align 1
  %158 = sext i8 %157 to i32
  %159 = icmp eq i32 %158, 103
  br i1 %159, label %160, label %205

160:                                              ; preds = %146
  %161 = load i32, i32* %2, align 4
  %162 = sext i32 %161 to i64
  %163 = getelementptr inbounds [50 x [20 x i8]], [50 x [20 x i8]]* %5, i64 0, i64 %162
  %164 = load i32, i32* %2, align 4
  %165 = sext i32 %164 to i64
  %166 = getelementptr inbounds [50 x i32], [50 x i32]* %4, i64 0, i64 %165
  %167 = load i32, i32* %166, align 4
  %168 = sub nsw i32 %167, 3
  %169 = sext i32 %168 to i64
  %170 = getelementptr inbounds [20 x i8], [20 x i8]* %163, i64 0, i64 %169
  %171 = load i8, i8* %170, align 1
  %172 = sext i8 %171 to i32
  %173 = icmp eq i32 %172, 105
  br i1 %173, label %174, label %205

174:                                              ; preds = %160
  %175 = load i32, i32* %2, align 4
  %176 = sext i32 %175 to i64
  %177 = getelementptr inbounds [50 x [20 x i8]], [50 x [20 x i8]]* %5, i64 0, i64 %176
  %178 = load i32, i32* %2, align 4
  %179 = sext i32 %178 to i64
  %180 = getelementptr inbounds [50 x i32], [50 x i32]* %4, i64 0, i64 %179
  %181 = load i32, i32* %180, align 4
  %182 = sub nsw i32 %181, 2
  %183 = sext i32 %182 to i64
  %184 = getelementptr inbounds [20 x i8], [20 x i8]* %177, i64 0, i64 %183
  store i8 0, i8* %184, align 1
  %185 = load i32, i32* %2, align 4
  %186 = sext i32 %185 to i64
  %187 = getelementptr inbounds [50 x [20 x i8]], [50 x [20 x i8]]* %5, i64 0, i64 %186
  %188 = load i32, i32* %2, align 4
  %189 = sext i32 %188 to i64
  %190 = getelementptr inbounds [50 x i32], [50 x i32]* %4, i64 0, i64 %189
  %191 = load i32, i32* %190, align 4
  %192 = sub nsw i32 %191, 1
  %193 = sext i32 %192 to i64
  %194 = getelementptr inbounds [20 x i8], [20 x i8]* %187, i64 0, i64 %193
  store i8 0, i8* %194, align 1
  %195 = load i32, i32* %2, align 4
  %196 = sext i32 %195 to i64
  %197 = getelementptr inbounds [50 x [20 x i8]], [50 x [20 x i8]]* %5, i64 0, i64 %196
  %198 = load i32, i32* %2, align 4
  %199 = sext i32 %198 to i64
  %200 = getelementptr inbounds [50 x i32], [50 x i32]* %4, i64 0, i64 %199
  %201 = load i32, i32* %200, align 4
  %202 = sub nsw i32 %201, 3
  %203 = sext i32 %202 to i64
  %204 = getelementptr inbounds [20 x i8], [20 x i8]* %197, i64 0, i64 %203
  store i8 0, i8* %204, align 1
  br label %205

205:                                              ; preds = %174, %160, %146, %132
  br label %206

206:                                              ; preds = %205, %111
  br label %207

207:                                              ; preds = %206, %62
  %208 = load i32, i32* %2, align 4
  %209 = sext i32 %208 to i64
  %210 = getelementptr inbounds [50 x [20 x i8]], [50 x [20 x i8]]* %5, i64 0, i64 %209
  %211 = getelementptr inbounds [20 x i8], [20 x i8]* %210, i64 0, i64 0
  %212 = call i32 (i8*, ...) @printf(i8* getelementptr inbounds ([4 x i8], [4 x i8]* @.str.2, i64 0, i64 0), i8* %211)
  br label %213

213:                                              ; preds = %207
  %214 = load i32, i32* %2, align 4
  %215 = add nsw i32 %214, 1
  store i32 %215, i32* %2, align 4
  br label %30

216:                                              ; preds = %30
  ret i32 0
}

declare dso_local i32 @__isoc99_scanf(i8*, ...) #1

; Function Attrs: nounwind readonly
declare dso_local i64 @strlen(i8*) #2

declare dso_local i32 @printf(i8*, ...) #1


!llvm.module.flags = !{!0}
!llvm.ident = !{!1}

!0 = !{i32 1, !"wchar_size", i32 4}
!1 = !{!"clang version 10.0.0-4ubuntu1 "}
